target datalayout = "e-m:e-p270:32:32-p271:32:32-p272:64:64-i64:64-i128:128-f80:128-n8:16:32:64-S128"
target triple = "x86_64-unknown-linux-gnu"

%"class.node::MutexBase" = type { %union.pthread_mutex_t }
%union.pthread_mutex_t = type { %struct.__pthread_mutex_s }
%struct.__pthread_mutex_s = type { i32, i32, i32, i32, i32, i16, i16, %struct.__pthread_internal_list }
%struct.__pthread_internal_list = type { ptr, ptr }
%"class.node::ConditionVariableBase" = type { %union.pthread_cond_t }
%union.pthread_cond_t = type { %struct.__pthread_cond_s }
%struct.__pthread_cond_s = type { %union.__atomic_wide_counter, %union.__atomic_wide_counter, [2 x i32], [2 x i32], i32, i32, [2 x i32] }
%union.__atomic_wide_counter = type { i64 }
%"class.std::unique_ptr" = type { %"struct.std::__uniq_ptr_data" }
%"struct.std::__uniq_ptr_data" = type { %"class.std::__uniq_ptr_impl" }
%"class.std::__uniq_ptr_impl" = type { %"class.std::tuple" }
%"class.std::tuple" = type { %"struct.std::_Tuple_impl" }
%"struct.std::_Tuple_impl" = type { %"struct.std::_Head_base.1" }
%"struct.std::_Head_base.1" = type { ptr }
%"class.node::WorkerThreadsTaskRunner" = type { %"class.node::TaskQueue", %"class.std::unique_ptr", %"class.std::vector" }
%"class.node::TaskQueue" = type { %"class.node::MutexBase", %"class.node::ConditionVariableBase", %"class.node::ConditionVariableBase", i32, i8, %"class.std::queue" }
%"class.std::queue" = type { %"class.std::deque" }
%"class.std::deque" = type { %"class.std::_Deque_base" }
%"class.std::_Deque_base" = type { %"struct.std::_Deque_base<std::unique_ptr<v8::Task>, std::allocator<std::unique_ptr<v8::Task>>>::_Deque_impl" }
%"struct.std::_Deque_base<std::unique_ptr<v8::Task>, std::allocator<std::unique_ptr<v8::Task>>>::_Deque_impl" = type { %"struct.std::_Deque_base<std::unique_ptr<v8::Task>, std::allocator<std::unique_ptr<v8::Task>>>::_Deque_impl_data" }
%"struct.std::_Deque_base<std::unique_ptr<v8::Task>, std::allocator<std::unique_ptr<v8::Task>>>::_Deque_impl_data" = type { ptr, i64, %"struct.std::_Deque_iterator", %"struct.std::_Deque_iterator" }
%"struct.std::_Deque_iterator" = type { ptr, ptr, ptr, ptr }
%"class.std::vector" = type { %"struct.std::_Vector_base" }
%"struct.std::_Vector_base" = type { %"struct.std::_Vector_base<std::unique_ptr<unsigned long>, std::allocator<std::unique_ptr<unsigned long>>>::_Vector_impl" }
%"struct.std::_Vector_base<std::unique_ptr<unsigned long>, std::allocator<std::unique_ptr<unsigned long>>>::_Vector_impl" = type { %"struct.std::_Vector_base<std::unique_ptr<unsigned long>, std::allocator<std::unique_ptr<unsigned long>>>::_Vector_impl_data" }
%"struct.std::_Vector_base<std::unique_ptr<unsigned long>, std::allocator<std::unique_ptr<unsigned long>>>::_Vector_impl_data" = type { ptr, ptr, ptr }

; Function Attrs: mustprogress nounwind uwtable
define linkonce_odr dso_local noundef i64 @_ZNKSt6vectorISt10unique_ptrImSt14default_deleteImEESaIS3_EE4sizeEv(ptr noundef nonnull align 8 dereferenceable(24) %this) #4 comdat align 2 {
entry:
  %this.addr = alloca ptr, align 8
  store ptr %this, ptr %this.addr, align 8
  %this1 = load ptr, ptr %this.addr, align 8
  %_M_impl = getelementptr inbounds %"struct.std::_Vector_base", ptr %this1, i32 0, i32 0
  %_M_finish = getelementptr inbounds %"struct.std::_Vector_base<std::unique_ptr<unsigned long>, std::allocator<std::unique_ptr<unsigned long>>>::_Vector_impl_data", ptr %_M_impl, i32 0, i32 1
  %0 = load ptr, ptr %_M_finish, align 8
  %_M_impl2 = getelementptr inbounds %"struct.std::_Vector_base", ptr %this1, i32 0, i32 0
  %_M_start = getelementptr inbounds %"struct.std::_Vector_base<std::unique_ptr<unsigned long>, std::allocator<std::unique_ptr<unsigned long>>>::_Vector_impl_data", ptr %_M_impl2, i32 0, i32 0
  %1 = load ptr, ptr %_M_start, align 8
  %sub.ptr.lhs.cast = ptrtoint ptr %0 to i64
  %sub.ptr.rhs.cast = ptrtoint ptr %1 to i64
  %sub.ptr.sub = sub i64 %sub.ptr.lhs.cast, %sub.ptr.rhs.cast
  %sub.ptr.div = sdiv exact i64 %sub.ptr.sub, 8
  ret i64 %sub.ptr.div
}

; Function Attrs: mustprogress nounwind uwtable
define dso_local noundef i32 @_ZNK4node23WorkerThreadsTaskRunner21NumberOfWorkerThreadsEv(ptr noundef nonnull align 8 dereferenceable(256) %this) #4 align 2 {
entry:
  %this.addr = alloca ptr, align 8
  store ptr %this, ptr %this.addr, align 8
  %this1 = load ptr, ptr %this.addr, align 8
  %threads_ = getelementptr inbounds %"class.node::WorkerThreadsTaskRunner", ptr %this1, i32 0, i32 2
  %call = call noundef i64 @_ZNKSt6vectorISt10unique_ptrImSt14default_deleteImEESaIS3_EE4sizeEv(ptr noundef nonnull align 8 dereferenceable(24) %threads_) #3
  %conv = trunc i64 %call to i32
  ret i32 %conv
}