; Function Attrs: mustprogress nofree norecurse nosync nounwind willreturn memory(argmem: read) uwtable
define dso_local noundef i32 @_ZNK4node23WorkerThreadsTaskRunner21NumberOfWorkerThreadsEv(ptr nocapture noundef nonnull readonly align 8 dereferenceable(256) %this) local_unnamed_addr #6 align 2 {
entry:
  %threads_ = getelementptr inbounds i8, ptr %this, i64 232
  %_M_finish.i = getelementptr inbounds i8, ptr %this, i64 240
  %0 = load ptr, ptr %_M_finish.i, align 8
  %1 = load ptr, ptr %threads_, align 8
  %sub.ptr.lhs.cast.i = ptrtoint ptr %0 to i64
  %sub.ptr.rhs.cast.i = ptrtoint ptr %1 to i64
  %sub.ptr.sub.i = sub i64 %sub.ptr.lhs.cast.i, %sub.ptr.rhs.cast.i
  %sub.ptr.div.i = lshr exact i64 %sub.ptr.sub.i, 3
  %conv = trunc i64 %sub.ptr.div.i to i32
  ret i32 %conv
}